Certificate:
    Data:
        Version: 1 (0x0)
        Serial Number: 4661 (0x1235)
        Signature Algorithm: sha256WithRSAEncryption
        Issuer: C=IL, ST=Jerusalem, L=Jerusalem, O=ARMO, OU=CTO, CN=ARMO/emailAddress=ben@armosec.io
        Validity
            Not Before: Nov 19 20:57:04 2022 GMT
            Not After : Nov 19 20:57:04 2023 GMT
        Subject: C=IL, ST=Jerusalem, L=Jerusalem, O=ARMO, OU=CTO, CN=10.0.2.15/emailAddress=ben@armosec.io
        Subject Public Key Info:
            Public Key Algorithm: rsaEncryption
                Public-Key: (2048 bit)
                Modulus:
                    00:a7:0a:59:a4:00:2c:79:b9:14:84:c8:43:62:91:
                    da:ce:66:c7:92:c9:07:d6:1d:35:51:0f:8c:1c:da:
                    a6:6e:69:72:ca:3b:97:e3:b1:3a:0c:a7:7a:da:d5:
                    e3:5f:34:8b:17:b7:b2:c2:f4:5e:97:2a:11:62:1b:
                    89:f2:d7:80:1e:2e:2c:e6:31:e9:e2:b6:40:e3:01:
                    68:7f:d2:2a:44:29:2a:e0:0d:a2:63:85:15:e4:6e:
                    7c:0b:d9:32:7a:38:7c:6a:10:2a:50:dd:90:18:85:
                    17:2b:3a:2c:31:f4:00:c1:ad:da:78:e6:4e:a6:86:
                    f2:1a:69:23:2f:be:50:46:e1:18:d2:81:6a:b4:3f:
                    d9:2f:18:d6:84:56:7e:aa:57:1b:bd:2a:c5:98:8a:
                    3d:62:15:83:70:d9:6a:1d:14:91:38:4f:6d:41:c1:
                    3e:bf:c8:94:53:31:36:df:cf:67:fb:70:a7:05:a5:
                    44:0c:71:fb:da:2f:22:2e:7d:04:01:ff:b1:f1:4b:
                    12:46:33:84:8f:61:be:68:8f:16:97:4f:4f:cb:e5:
                    a6:c6:61:6e:cd:fc:87:7c:ae:aa:94:63:7a:23:40:
                    a7:11:b5:60:53:d3:da:3b:56:0b:24:5f:ec:0f:fa:
                    ed:79:86:ee:74:d1:f4:b6:aa:7b:c7:37:7e:c6:4c:
                    3c:9f
                Exponent: 65537 (0x10001)
    Signature Algorithm: sha256WithRSAEncryption
    Signature Value:
        04:9a:1a:c2:e5:fc:c6:98:98:96:73:e1:4e:9b:3d:66:21:47:
        46:8d:b9:14:86:20:06:66:de:d7:34:d5:03:c0:dd:4b:5f:57:
        7c:56:35:eb:f9:6b:ba:a3:47:9b:2a:c0:a5:bf:d5:c6:e1:81:
        3f:6e:c8:bd:10:0b:0e:2f:b5:e6:bc:8e:09:ef:37:d3:1f:c6:
        a9:5c:61:36:e9:f7:1e:b1:20:d5:5e:f6:20:e8:59:f3:75:2c:
        f6:79:b3:bd:2a:9c:59:c0:82:2a:d9:1a:61:4e:15:25:b2:2d:
        dc:f5:73:b7:a0:f2:bf:fe:af:24:75:b8:3d:08:d2:e1:45:fe:
        09:85:8b:26:36:2d:8a:48:27:15:db:56:3c:91:70:2b:69:e5:
        90:72:58:04:51:b8:d3:e0:9d:92:bf:aa:77:fe:1a:62:44:8f:
        12:fc:12:9b:a7:c9:17:15:10:d2:72:0d:89:e2:af:80:2c:b9:
        da:4d:d2:8e:ce:34:0b:c7:34:19:cb:d7:76:8d:44:d7:b3:d2:
        b0:3c:7f:a1:e1:e9:fd:1a:ae:b3:31:f0:65:30:a3:72:8a:70:
        a8:36:58:98:07:1c:34:54:12:98:35:55:af:61:ba:d2:7c:f1:
        a8:40:9a:bc:49:b2:f8:50:32:d2:2a:44:09:7a:2d:83:dd:f0:
        07:91:a4:fe
-----BEGIN CERTIFICATE-----
MIIDfDCCAmQCAhI1MA0GCSqGSIb3DQEBCwUAMIGAMQswCQYDVQQGEwJJTDESMBAG
A1UECAwJSmVydXNhbGVtMRIwEAYDVQQHDAlKZXJ1c2FsZW0xDTALBgNVBAoMBEFS
TU8xDDAKBgNVBAsMA0NUTzENMAsGA1UEAwwEQVJNTzEdMBsGCSqGSIb3DQEJARYO
YmVuQGFybW9zZWMuaW8wHhcNMjIxMTE5MjA1NzA0WhcNMjMxMTE5MjA1NzA0WjCB
hTELMAkGA1UEBhMCSUwxEjAQBgNVBAgMCUplcnVzYWxlbTESMBAGA1UEBwwJSmVy
dXNhbGVtMQ0wCwYDVQQKDARBUk1PMQwwCgYDVQQLDANDVE8xEjAQBgNVBAMMCTEw
LjAuMi4xNTEdMBsGCSqGSIb3DQEJARYOYmVuQGFybW9zZWMuaW8wggEiMA0GCSqG
SIb3DQEBAQUAA4IBDwAwggEKAoIBAQCnClmkACx5uRSEyENikdrOZseSyQfWHTVR
D4wc2qZuaXLKO5fjsToMp3ra1eNfNIsXt7LC9F6XKhFiG4ny14AeLizmMenitkDj
AWh/0ipEKSrgDaJjhRXkbnwL2TJ6OHxqECpQ3ZAYhRcrOiwx9ADBrdp45k6mhvIa
aSMvvlBG4RjSgWq0P9kvGNaEVn6qVxu9KsWYij1iFYNw2WodFJE4T21BwT6/yJRT
MTbfz2f7cKcFpUQMcfvaLyIufQQB/7HxSxJGM4SPYb5ojxaXT0/L5abGYW7N/Id8
rqqUY3ojQKcRtWBT09o7VgskX+wP+u15hu500fS2qnvHN37GTDyfAgMBAAEwDQYJ
KoZIhvcNAQELBQADggEBAASaGsLl/MaYmJZz4U6bPWYhR0aNuRSGIAZm3tc01QPA
3UtfV3xWNev5a7qjR5sqwKW/1cbhgT9uyL0QCw4vtea8jgnvN9MfxqlcYTbp9x6x
INVe9iDoWfN1LPZ5s70qnFnAgirZGmFOFSWyLdz1c7eg8r/+ryR1uD0I0uFF/gmF
iyY2LYpIJxXbVjyRcCtp5ZByWARRuNPgnZK/qnf+GmJEjxL8EpunyRcVENJyDYni
r4AsudpN0o7ONAvHNBnL13aNRNez0rA8f6Hh6f0arrMx8GUwo3KKcKg2WJgHHDRU
Epg1Va9hutJ88ahAmrxJsvhQMtIqRAl6LYPd8AeRpP4=
-----END CERTIFICATE-----
