Certificate:
    Data:
        Version: 1 (0x0)
        Serial Number: 4662 (0x1236)
        Signature Algorithm: sha256WithRSAEncryption
        Issuer: C=IL, ST=Jerusalem, L=Jerusalem, O=ARMO, OU=CTO, CN=ARMO/emailAddress=ben@armosec.io
        Validity
            Not Before: Nov 19 21:26:38 2022 GMT
            Not After : Nov 19 21:26:38 2023 GMT
        Subject: C=IL, ST=Jerusalem, L=Jerusalem, O=ARMO, OU=CTO, CN=10.0.2.15/emailAddress=ben@armosec.io
        Subject Public Key Info:
            Public Key Algorithm: rsaEncryption
                Public-Key: (2048 bit)
                Modulus:
                    00:a7:0a:59:a4:00:2c:79:b9:14:84:c8:43:62:91:
                    da:ce:66:c7:92:c9:07:d6:1d:35:51:0f:8c:1c:da:
                    a6:6e:69:72:ca:3b:97:e3:b1:3a:0c:a7:7a:da:d5:
                    e3:5f:34:8b:17:b7:b2:c2:f4:5e:97:2a:11:62:1b:
                    89:f2:d7:80:1e:2e:2c:e6:31:e9:e2:b6:40:e3:01:
                    68:7f:d2:2a:44:29:2a:e0:0d:a2:63:85:15:e4:6e:
                    7c:0b:d9:32:7a:38:7c:6a:10:2a:50:dd:90:18:85:
                    17:2b:3a:2c:31:f4:00:c1:ad:da:78:e6:4e:a6:86:
                    f2:1a:69:23:2f:be:50:46:e1:18:d2:81:6a:b4:3f:
                    d9:2f:18:d6:84:56:7e:aa:57:1b:bd:2a:c5:98:8a:
                    3d:62:15:83:70:d9:6a:1d:14:91:38:4f:6d:41:c1:
                    3e:bf:c8:94:53:31:36:df:cf:67:fb:70:a7:05:a5:
                    44:0c:71:fb:da:2f:22:2e:7d:04:01:ff:b1:f1:4b:
                    12:46:33:84:8f:61:be:68:8f:16:97:4f:4f:cb:e5:
                    a6:c6:61:6e:cd:fc:87:7c:ae:aa:94:63:7a:23:40:
                    a7:11:b5:60:53:d3:da:3b:56:0b:24:5f:ec:0f:fa:
                    ed:79:86:ee:74:d1:f4:b6:aa:7b:c7:37:7e:c6:4c:
                    3c:9f
                Exponent: 65537 (0x10001)
    Signature Algorithm: sha256WithRSAEncryption
    Signature Value:
        7b:e6:78:1c:a4:13:53:4c:d1:f3:f4:4d:03:da:2d:57:8c:d4:
        6a:b5:72:4f:ff:a9:6d:1a:39:a8:a6:fd:6f:ab:1f:b5:54:d4:
        03:aa:06:0b:ae:29:e7:a7:3a:75:ed:ab:d3:85:2b:6d:12:35:
        99:a1:e8:6f:35:a1:bf:16:64:56:87:20:94:3e:6b:55:a6:60:
        37:b4:5c:e4:c2:d2:fb:2f:c5:b1:98:60:d0:55:d8:a6:4c:91:
        98:8b:cf:e3:03:33:bb:ae:4b:b1:a2:df:0a:ba:62:a7:98:3f:
        5e:49:92:b2:79:bb:dd:f3:a3:38:11:79:ad:89:31:8d:f7:2a:
        d9:3f:b0:44:5a:01:ed:40:b5:91:05:a1:48:39:73:44:48:ec:
        43:5e:68:d3:69:99:35:54:b6:e6:2e:bc:9a:4e:5d:ac:ec:c8:
        91:b6:77:62:52:7d:95:a0:47:53:46:d8:ad:f1:53:61:3c:4b:
        c7:3d:46:ea:e7:8b:2f:21:d2:58:40:63:53:d4:95:26:7c:d7:
        1a:c2:8a:72:de:42:aa:94:23:a1:c9:44:72:55:cc:3d:54:86:
        e1:12:84:9b:0d:61:b0:46:5e:db:84:3b:e1:e4:71:3d:9f:06:
        79:7c:48:8d:9e:fa:5c:20:70:97:89:65:db:ee:4f:a2:21:8d:
        f5:11:82:09
-----BEGIN CERTIFICATE-----
MIIDfDCCAmQCAhI2MA0GCSqGSIb3DQEBCwUAMIGAMQswCQYDVQQGEwJJTDESMBAG
A1UECAwJSmVydXNhbGVtMRIwEAYDVQQHDAlKZXJ1c2FsZW0xDTALBgNVBAoMBEFS
TU8xDDAKBgNVBAsMA0NUTzENMAsGA1UEAwwEQVJNTzEdMBsGCSqGSIb3DQEJARYO
YmVuQGFybW9zZWMuaW8wHhcNMjIxMTE5MjEyNjM4WhcNMjMxMTE5MjEyNjM4WjCB
hTELMAkGA1UEBhMCSUwxEjAQBgNVBAgMCUplcnVzYWxlbTESMBAGA1UEBwwJSmVy
dXNhbGVtMQ0wCwYDVQQKDARBUk1PMQwwCgYDVQQLDANDVE8xEjAQBgNVBAMMCTEw
LjAuMi4xNTEdMBsGCSqGSIb3DQEJARYOYmVuQGFybW9zZWMuaW8wggEiMA0GCSqG
SIb3DQEBAQUAA4IBDwAwggEKAoIBAQCnClmkACx5uRSEyENikdrOZseSyQfWHTVR
D4wc2qZuaXLKO5fjsToMp3ra1eNfNIsXt7LC9F6XKhFiG4ny14AeLizmMenitkDj
AWh/0ipEKSrgDaJjhRXkbnwL2TJ6OHxqECpQ3ZAYhRcrOiwx9ADBrdp45k6mhvIa
aSMvvlBG4RjSgWq0P9kvGNaEVn6qVxu9KsWYij1iFYNw2WodFJE4T21BwT6/yJRT
MTbfz2f7cKcFpUQMcfvaLyIufQQB/7HxSxJGM4SPYb5ojxaXT0/L5abGYW7N/Id8
rqqUY3ojQKcRtWBT09o7VgskX+wP+u15hu500fS2qnvHN37GTDyfAgMBAAEwDQYJ
KoZIhvcNAQELBQADggEBAHvmeBykE1NM0fP0TQPaLVeM1Gq1ck//qW0aOaim/W+r
H7VU1AOqBguuKeenOnXtq9OFK20SNZmh6G81ob8WZFaHIJQ+a1WmYDe0XOTC0vsv
xbGYYNBV2KZMkZiLz+MDM7uuS7Gi3wq6YqeYP15JkrJ5u93zozgRea2JMY33Ktk/
sERaAe1AtZEFoUg5c0RI7ENeaNNpmTVUtuYuvJpOXazsyJG2d2JSfZWgR1NG2K3x
U2E8S8c9Rurniy8h0lhAY1PUlSZ81xrCinLeQqqUI6HJRHJVzD1UhuEShJsNYbBG
XtuEO+HkcT2fBnl8SI2e+lwgcJeJZdvuT6IhjfURggk=
-----END CERTIFICATE-----
