Certificate:
    Data:
        Version: 1 (0x0)
        Serial Number: 4663 (0x1237)
        Signature Algorithm: sha256WithRSAEncryption
        Issuer: C=IL, ST=Jerusalem, L=Jerusalem, O=ARMO, OU=CTO, CN=ARMO/emailAddress=ben@armosec.io
        Validity
            Not Before: Nov 19 21:33:14 2022 GMT
            Not After : Nov 19 21:33:14 2023 GMT
        Subject: C=IL, ST=Some-State, L=Jerusalem, O=ARMO, OU=CTO, CN=10.0.2.15/emailAddress=ben@armosec.io
        Subject Public Key Info:
            Public Key Algorithm: rsaEncryption
                Public-Key: (2048 bit)
                Modulus:
                    00:a7:0a:59:a4:00:2c:79:b9:14:84:c8:43:62:91:
                    da:ce:66:c7:92:c9:07:d6:1d:35:51:0f:8c:1c:da:
                    a6:6e:69:72:ca:3b:97:e3:b1:3a:0c:a7:7a:da:d5:
                    e3:5f:34:8b:17:b7:b2:c2:f4:5e:97:2a:11:62:1b:
                    89:f2:d7:80:1e:2e:2c:e6:31:e9:e2:b6:40:e3:01:
                    68:7f:d2:2a:44:29:2a:e0:0d:a2:63:85:15:e4:6e:
                    7c:0b:d9:32:7a:38:7c:6a:10:2a:50:dd:90:18:85:
                    17:2b:3a:2c:31:f4:00:c1:ad:da:78:e6:4e:a6:86:
                    f2:1a:69:23:2f:be:50:46:e1:18:d2:81:6a:b4:3f:
                    d9:2f:18:d6:84:56:7e:aa:57:1b:bd:2a:c5:98:8a:
                    3d:62:15:83:70:d9:6a:1d:14:91:38:4f:6d:41:c1:
                    3e:bf:c8:94:53:31:36:df:cf:67:fb:70:a7:05:a5:
                    44:0c:71:fb:da:2f:22:2e:7d:04:01:ff:b1:f1:4b:
                    12:46:33:84:8f:61:be:68:8f:16:97:4f:4f:cb:e5:
                    a6:c6:61:6e:cd:fc:87:7c:ae:aa:94:63:7a:23:40:
                    a7:11:b5:60:53:d3:da:3b:56:0b:24:5f:ec:0f:fa:
                    ed:79:86:ee:74:d1:f4:b6:aa:7b:c7:37:7e:c6:4c:
                    3c:9f
                Exponent: 65537 (0x10001)
    Signature Algorithm: sha256WithRSAEncryption
    Signature Value:
        15:34:64:45:6d:d7:a1:a9:51:ed:13:2e:ce:94:98:77:db:75:
        e9:0a:b0:d3:fe:ee:5a:c2:1c:3a:05:69:6f:13:2e:57:47:bf:
        67:ad:87:49:5c:a9:b0:6e:4b:a3:df:cc:32:cc:2f:a5:97:f7:
        ad:8b:5b:0c:29:76:c3:3c:97:23:3f:25:27:72:3e:24:3e:34:
        94:6c:15:16:4b:89:2b:dd:a6:1c:de:cf:c5:15:ee:9b:f6:84:
        2b:34:a1:4b:08:d1:df:7e:55:d0:84:1d:1a:7b:13:fc:8c:74:
        47:9b:2c:d8:69:12:db:df:b1:3b:f4:17:d2:79:ad:67:74:02:
        6f:7b:1b:be:d6:51:ba:08:ac:b1:74:6a:e5:52:b5:cb:8d:29:
        44:2e:3c:75:4c:dc:06:a2:89:ef:38:71:f4:08:f2:c9:6f:1e:
        b3:c8:bb:56:5a:89:9f:06:f1:21:e7:cd:f8:ad:76:99:bf:f1:
        04:18:72:96:a8:cd:21:df:94:13:76:46:01:3f:0a:c0:45:05:
        6d:42:fc:44:55:33:0c:73:8d:6d:1a:98:c0:cf:da:be:83:7a:
        1a:18:e9:b0:c7:1d:af:f3:d1:fe:6c:da:a0:5b:43:fc:0c:a2:
        43:0a:7e:36:95:69:ff:66:9d:29:40:60:95:a5:fe:b6:fb:7f:
        68:02:69:5b
-----BEGIN CERTIFICATE-----
MIIDfTCCAmUCAhI3MA0GCSqGSIb3DQEBCwUAMIGAMQswCQYDVQQGEwJJTDESMBAG
A1UECAwJSmVydXNhbGVtMRIwEAYDVQQHDAlKZXJ1c2FsZW0xDTALBgNVBAoMBEFS
TU8xDDAKBgNVBAsMA0NUTzENMAsGA1UEAwwEQVJNTzEdMBsGCSqGSIb3DQEJARYO
YmVuQGFybW9zZWMuaW8wHhcNMjIxMTE5MjEzMzE0WhcNMjMxMTE5MjEzMzE0WjCB
hjELMAkGA1UEBhMCSUwxEzARBgNVBAgMClNvbWUtU3RhdGUxEjAQBgNVBAcMCUpl
cnVzYWxlbTENMAsGA1UECgwEQVJNTzEMMAoGA1UECwwDQ1RPMRIwEAYDVQQDDAkx
MC4wLjIuMTUxHTAbBgkqhkiG9w0BCQEWDmJlbkBhcm1vc2VjLmlvMIIBIjANBgkq
hkiG9w0BAQEFAAOCAQ8AMIIBCgKCAQEApwpZpAAsebkUhMhDYpHazmbHkskH1h01
UQ+MHNqmbmlyyjuX47E6DKd62tXjXzSLF7eywvRelyoRYhuJ8teAHi4s5jHp4rZA
4wFof9IqRCkq4A2iY4UV5G58C9kyejh8ahAqUN2QGIUXKzosMfQAwa3aeOZOpoby
GmkjL75QRuEY0oFqtD/ZLxjWhFZ+qlcbvSrFmIo9YhWDcNlqHRSROE9tQcE+v8iU
UzE2389n+3CnBaVEDHH72i8iLn0EAf+x8UsSRjOEj2G+aI8Wl09Py+WmxmFuzfyH
fK6qlGN6I0CnEbVgU9PaO1YLJF/sD/rteYbudNH0tqp7xzd+xkw8nwIDAQABMA0G
CSqGSIb3DQEBCwUAA4IBAQAVNGRFbdehqVHtEy7OlJh323XpCrDT/u5awhw6BWlv
Ey5XR79nrYdJXKmwbkuj38wyzC+ll/eti1sMKXbDPJcjPyUncj4kPjSUbBUWS4kr
3aYc3s/FFe6b9oQrNKFLCNHfflXQhB0aexP8jHRHmyzYaRLb37E79BfSea1ndAJv
exu+1lG6CKyxdGrlUrXLjSlELjx1TNwGoonvOHH0CPLJbx6zyLtWWomfBvEh5834
rXaZv/EEGHKWqM0h35QTdkYBPwrARQVtQvxEVTMMc41tGpjAz9q+g3oaGOmwxx2v
89H+bNqgW0P8DKJDCn42lWn/Zp0pQGCVpf62+39oAmlb
-----END CERTIFICATE-----
