Certificate:
    Data:
        Version: 1 (0x0)
        Serial Number: 4664 (0x1238)
        Signature Algorithm: sha256WithRSAEncryption
        Issuer: C=IL, ST=Jerusalem, L=Jerusalem, O=ARMO, OU=CTO, CN=ARMO/emailAddress=ben@armosec.io
        Validity
            Not Before: Nov 19 21:43:14 2022 GMT
            Not After : Nov 19 21:43:14 2023 GMT
        Subject: C=IL, ST=Jerusalem, L=Jerusalem, O=ARMO, CN=10.0.2.15
        Subject Public Key Info:
            Public Key Algorithm: rsaEncryption
                Public-Key: (2048 bit)
                Modulus:
                    00:a7:0a:59:a4:00:2c:79:b9:14:84:c8:43:62:91:
                    da:ce:66:c7:92:c9:07:d6:1d:35:51:0f:8c:1c:da:
                    a6:6e:69:72:ca:3b:97:e3:b1:3a:0c:a7:7a:da:d5:
                    e3:5f:34:8b:17:b7:b2:c2:f4:5e:97:2a:11:62:1b:
                    89:f2:d7:80:1e:2e:2c:e6:31:e9:e2:b6:40:e3:01:
                    68:7f:d2:2a:44:29:2a:e0:0d:a2:63:85:15:e4:6e:
                    7c:0b:d9:32:7a:38:7c:6a:10:2a:50:dd:90:18:85:
                    17:2b:3a:2c:31:f4:00:c1:ad:da:78:e6:4e:a6:86:
                    f2:1a:69:23:2f:be:50:46:e1:18:d2:81:6a:b4:3f:
                    d9:2f:18:d6:84:56:7e:aa:57:1b:bd:2a:c5:98:8a:
                    3d:62:15:83:70:d9:6a:1d:14:91:38:4f:6d:41:c1:
                    3e:bf:c8:94:53:31:36:df:cf:67:fb:70:a7:05:a5:
                    44:0c:71:fb:da:2f:22:2e:7d:04:01:ff:b1:f1:4b:
                    12:46:33:84:8f:61:be:68:8f:16:97:4f:4f:cb:e5:
                    a6:c6:61:6e:cd:fc:87:7c:ae:aa:94:63:7a:23:40:
                    a7:11:b5:60:53:d3:da:3b:56:0b:24:5f:ec:0f:fa:
                    ed:79:86:ee:74:d1:f4:b6:aa:7b:c7:37:7e:c6:4c:
                    3c:9f
                Exponent: 65537 (0x10001)
    Signature Algorithm: sha256WithRSAEncryption
    Signature Value:
        0e:44:dd:60:dc:2d:d4:45:ec:6f:3e:43:89:5c:b3:a9:9b:11:
        e5:05:53:d4:41:aa:69:36:65:7f:df:6e:81:7f:9c:0d:5f:a0:
        c3:9e:8b:8a:1b:a1:1f:e5:5c:1e:98:48:db:a3:c6:bb:ee:f9:
        88:ac:04:9f:ae:21:f6:67:f9:59:b8:e5:99:43:a7:2b:c7:bc:
        73:bd:4c:9e:22:c8:90:d3:fd:86:31:1e:c4:49:61:73:b6:6e:
        2a:15:8f:f4:12:60:d2:1c:a8:4e:7b:46:c7:14:e3:40:7b:00:
        b3:3c:ef:cc:41:96:c9:97:10:e8:ab:76:3a:ae:5d:2e:89:fa:
        fb:af:d2:ba:c9:c2:09:24:72:ea:75:ea:4f:1f:e6:80:97:5b:
        ac:61:d3:bd:33:84:79:db:59:de:2a:c2:38:f2:9a:0e:29:e1:
        8a:b7:aa:53:b6:8a:86:63:ea:be:51:8a:39:3b:bc:b7:ba:70:
        ed:69:e7:ac:8b:e9:37:6a:f5:d5:72:04:cc:8b:bb:b4:ff:80:
        42:16:31:c7:69:0c:b0:48:ae:fd:f1:22:73:81:77:60:35:91:
        81:79:1a:ba:7c:08:5f:c2:62:f2:83:d6:d3:14:8d:00:bb:22:
        22:8a:31:11:91:41:8d:40:76:5f:6e:c4:dc:a4:a3:74:da:77:
        ae:72:ee:c7
-----BEGIN CERTIFICATE-----
MIIDTjCCAjYCAhI4MA0GCSqGSIb3DQEBCwUAMIGAMQswCQYDVQQGEwJJTDESMBAG
A1UECAwJSmVydXNhbGVtMRIwEAYDVQQHDAlKZXJ1c2FsZW0xDTALBgNVBAoMBEFS
TU8xDDAKBgNVBAsMA0NUTzENMAsGA1UEAwwEQVJNTzEdMBsGCSqGSIb3DQEJARYO
YmVuQGFybW9zZWMuaW8wHhcNMjIxMTE5MjE0MzE0WhcNMjMxMTE5MjE0MzE0WjBY
MQswCQYDVQQGEwJJTDESMBAGA1UECAwJSmVydXNhbGVtMRIwEAYDVQQHDAlKZXJ1
c2FsZW0xDTALBgNVBAoMBEFSTU8xEjAQBgNVBAMMCTEwLjAuMi4xNTCCASIwDQYJ
KoZIhvcNAQEBBQADggEPADCCAQoCggEBAKcKWaQALHm5FITIQ2KR2s5mx5LJB9Yd
NVEPjBzapm5pcso7l+OxOgynetrV4180ixe3ssL0XpcqEWIbifLXgB4uLOYx6eK2
QOMBaH/SKkQpKuANomOFFeRufAvZMno4fGoQKlDdkBiFFys6LDH0AMGt2njmTqaG
8hppIy++UEbhGNKBarQ/2S8Y1oRWfqpXG70qxZiKPWIVg3DZah0UkThPbUHBPr/I
lFMxNt/PZ/twpwWlRAxx+9ovIi59BAH/sfFLEkYzhI9hvmiPFpdPT8vlpsZhbs38
h3yuqpRjeiNApxG1YFPT2jtWCyRf7A/67XmG7nTR9Laqe8c3fsZMPJ8CAwEAATAN
BgkqhkiG9w0BAQsFAAOCAQEADkTdYNwt1EXsbz5DiVyzqZsR5QVT1EGqaTZlf99u
gX+cDV+gw56LihuhH+VcHphI26PGu+75iKwEn64h9mf5WbjlmUOnK8e8c71MniLI
kNP9hjEexElhc7ZuKhWP9BJg0hyoTntGxxTjQHsAszzvzEGWyZcQ6Kt2Oq5dLon6
+6/SusnCCSRy6nXqTx/mgJdbrGHTvTOEedtZ3irCOPKaDinhireqU7aKhmPqvlGK
OTu8t7pw7WnnrIvpN2r11XIEzIu7tP+AQhYxx2kMsEiu/fEic4F3YDWRgXkaunwI
X8Ji8oPW0xSNALsiIooxEZFBjUB2X27E3KSjdNp3rnLuxw==
-----END CERTIFICATE-----
