Certificate:
    Data:
        Version: 1 (0x0)
        Serial Number: 4665 (0x1239)
        Signature Algorithm: sha256WithRSAEncryption
        Issuer: C=IL, ST=Jerusalem, L=Jerusalem, O=ARMO, OU=CTO, CN=ARMO/emailAddress=ben@armosec.io
        Validity
            Not Before: Nov 19 21:46:51 2022 GMT
            Not After : Nov 19 21:46:51 2023 GMT
        Subject: C=IL, ST=Jerusalem, L=Jeruslaem, O=ARMO, CN=10.0.2.15
        Subject Public Key Info:
            Public Key Algorithm: rsaEncryption
                Public-Key: (2048 bit)
                Modulus:
                    00:a7:0a:59:a4:00:2c:79:b9:14:84:c8:43:62:91:
                    da:ce:66:c7:92:c9:07:d6:1d:35:51:0f:8c:1c:da:
                    a6:6e:69:72:ca:3b:97:e3:b1:3a:0c:a7:7a:da:d5:
                    e3:5f:34:8b:17:b7:b2:c2:f4:5e:97:2a:11:62:1b:
                    89:f2:d7:80:1e:2e:2c:e6:31:e9:e2:b6:40:e3:01:
                    68:7f:d2:2a:44:29:2a:e0:0d:a2:63:85:15:e4:6e:
                    7c:0b:d9:32:7a:38:7c:6a:10:2a:50:dd:90:18:85:
                    17:2b:3a:2c:31:f4:00:c1:ad:da:78:e6:4e:a6:86:
                    f2:1a:69:23:2f:be:50:46:e1:18:d2:81:6a:b4:3f:
                    d9:2f:18:d6:84:56:7e:aa:57:1b:bd:2a:c5:98:8a:
                    3d:62:15:83:70:d9:6a:1d:14:91:38:4f:6d:41:c1:
                    3e:bf:c8:94:53:31:36:df:cf:67:fb:70:a7:05:a5:
                    44:0c:71:fb:da:2f:22:2e:7d:04:01:ff:b1:f1:4b:
                    12:46:33:84:8f:61:be:68:8f:16:97:4f:4f:cb:e5:
                    a6:c6:61:6e:cd:fc:87:7c:ae:aa:94:63:7a:23:40:
                    a7:11:b5:60:53:d3:da:3b:56:0b:24:5f:ec:0f:fa:
                    ed:79:86:ee:74:d1:f4:b6:aa:7b:c7:37:7e:c6:4c:
                    3c:9f
                Exponent: 65537 (0x10001)
    Signature Algorithm: sha256WithRSAEncryption
    Signature Value:
        6c:8d:2b:a3:16:49:f9:b4:41:20:04:40:3c:50:03:45:65:81:
        94:74:a5:a9:c7:11:98:58:b8:06:50:ac:d2:29:fd:c7:63:06:
        33:82:6d:25:f3:71:64:b3:78:d6:b5:62:c3:f2:5d:67:ed:1d:
        b7:05:1f:0a:2f:97:48:46:23:f4:5a:4c:e4:dc:f6:e6:4f:0a:
        fd:da:36:0f:22:26:b8:d5:be:b3:cc:0d:91:10:e2:53:4b:d6:
        0a:0a:7c:47:f0:9c:68:1e:e3:5c:45:a4:c5:7d:da:00:e0:50:
        73:e8:39:0d:51:43:e2:49:4a:94:a5:0b:99:26:d0:bc:24:49:
        ab:59:d4:9f:99:78:79:94:84:c9:dd:ff:30:d3:c8:5d:34:aa:
        47:ea:1b:6f:98:4e:97:d9:e9:9f:44:f7:1d:f5:97:1a:4e:82:
        99:f5:ab:ba:fb:fd:7b:6a:d6:4c:f3:0f:66:e0:93:3a:d1:39:
        c7:4a:6a:af:df:38:62:36:f6:ec:6e:d0:f7:82:08:9d:4d:97:
        37:8f:89:35:e1:80:71:d6:1c:61:8f:89:f0:ba:27:1a:83:fc:
        1c:c1:13:bb:fb:dd:41:54:ae:de:8c:e7:c2:4b:15:b1:b0:0b:
        2e:a6:11:47:e2:64:c8:d3:0d:48:0b:9e:2b:24:24:1e:38:df:
        e2:d2:69:74
-----BEGIN CERTIFICATE-----
MIIDTjCCAjYCAhI5MA0GCSqGSIb3DQEBCwUAMIGAMQswCQYDVQQGEwJJTDESMBAG
A1UECAwJSmVydXNhbGVtMRIwEAYDVQQHDAlKZXJ1c2FsZW0xDTALBgNVBAoMBEFS
TU8xDDAKBgNVBAsMA0NUTzENMAsGA1UEAwwEQVJNTzEdMBsGCSqGSIb3DQEJARYO
YmVuQGFybW9zZWMuaW8wHhcNMjIxMTE5MjE0NjUxWhcNMjMxMTE5MjE0NjUxWjBY
MQswCQYDVQQGEwJJTDESMBAGA1UECAwJSmVydXNhbGVtMRIwEAYDVQQHDAlKZXJ1
c2xhZW0xDTALBgNVBAoMBEFSTU8xEjAQBgNVBAMMCTEwLjAuMi4xNTCCASIwDQYJ
KoZIhvcNAQEBBQADggEPADCCAQoCggEBAKcKWaQALHm5FITIQ2KR2s5mx5LJB9Yd
NVEPjBzapm5pcso7l+OxOgynetrV4180ixe3ssL0XpcqEWIbifLXgB4uLOYx6eK2
QOMBaH/SKkQpKuANomOFFeRufAvZMno4fGoQKlDdkBiFFys6LDH0AMGt2njmTqaG
8hppIy++UEbhGNKBarQ/2S8Y1oRWfqpXG70qxZiKPWIVg3DZah0UkThPbUHBPr/I
lFMxNt/PZ/twpwWlRAxx+9ovIi59BAH/sfFLEkYzhI9hvmiPFpdPT8vlpsZhbs38
h3yuqpRjeiNApxG1YFPT2jtWCyRf7A/67XmG7nTR9Laqe8c3fsZMPJ8CAwEAATAN
BgkqhkiG9w0BAQsFAAOCAQEAbI0roxZJ+bRBIARAPFADRWWBlHSlqccRmFi4BlCs
0in9x2MGM4JtJfNxZLN41rViw/JdZ+0dtwUfCi+XSEYj9FpM5Nz25k8K/do2DyIm
uNW+s8wNkRDiU0vWCgp8R/CcaB7jXEWkxX3aAOBQc+g5DVFD4klKlKULmSbQvCRJ
q1nUn5l4eZSEyd3/MNPIXTSqR+obb5hOl9npn0T3HfWXGk6CmfWruvv9e2rWTPMP
ZuCTOtE5x0pqr984Yjb27G7Q94IInU2XN4+JNeGAcdYcYY+J8LonGoP8HMETu/vd
QVSu3oznwksVsbALLqYRR+JkyNMNSAueKyQkHjjf4tJpdA==
-----END CERTIFICATE-----
