Certificate:
    Data:
        Version: 1 (0x0)
        Serial Number: 4666 (0x123a)
        Signature Algorithm: sha256WithRSAEncryption
        Issuer: C=IL, ST=Jerusalem, L=Jerusalem, O=ARMO, OU=CTO, CN=ARMO/emailAddress=ben@armosec.io
        Validity
            Not Before: Nov 19 21:51:10 2022 GMT
            Not After : Nov 19 21:51:10 2023 GMT
        Subject: C=IL, ST=Jerusalem, L=Jerusalem, O=ARMO, CN=10.0.2.15
        Subject Public Key Info:
            Public Key Algorithm: rsaEncryption
                Public-Key: (2048 bit)
                Modulus:
                    00:a7:0a:59:a4:00:2c:79:b9:14:84:c8:43:62:91:
                    da:ce:66:c7:92:c9:07:d6:1d:35:51:0f:8c:1c:da:
                    a6:6e:69:72:ca:3b:97:e3:b1:3a:0c:a7:7a:da:d5:
                    e3:5f:34:8b:17:b7:b2:c2:f4:5e:97:2a:11:62:1b:
                    89:f2:d7:80:1e:2e:2c:e6:31:e9:e2:b6:40:e3:01:
                    68:7f:d2:2a:44:29:2a:e0:0d:a2:63:85:15:e4:6e:
                    7c:0b:d9:32:7a:38:7c:6a:10:2a:50:dd:90:18:85:
                    17:2b:3a:2c:31:f4:00:c1:ad:da:78:e6:4e:a6:86:
                    f2:1a:69:23:2f:be:50:46:e1:18:d2:81:6a:b4:3f:
                    d9:2f:18:d6:84:56:7e:aa:57:1b:bd:2a:c5:98:8a:
                    3d:62:15:83:70:d9:6a:1d:14:91:38:4f:6d:41:c1:
                    3e:bf:c8:94:53:31:36:df:cf:67:fb:70:a7:05:a5:
                    44:0c:71:fb:da:2f:22:2e:7d:04:01:ff:b1:f1:4b:
                    12:46:33:84:8f:61:be:68:8f:16:97:4f:4f:cb:e5:
                    a6:c6:61:6e:cd:fc:87:7c:ae:aa:94:63:7a:23:40:
                    a7:11:b5:60:53:d3:da:3b:56:0b:24:5f:ec:0f:fa:
                    ed:79:86:ee:74:d1:f4:b6:aa:7b:c7:37:7e:c6:4c:
                    3c:9f
                Exponent: 65537 (0x10001)
    Signature Algorithm: sha256WithRSAEncryption
    Signature Value:
        3a:ab:31:9a:da:73:c7:ea:53:c6:5f:8e:b7:83:c2:75:a7:99:
        ab:ba:dc:7c:8e:71:c4:6e:8e:09:40:ad:0b:46:eb:66:8c:a5:
        fb:cc:c4:00:db:b7:49:01:69:9b:60:91:37:e6:96:69:1a:ca:
        6a:36:81:2e:b4:1e:46:b1:74:38:9b:98:cf:00:23:3a:81:2f:
        7e:f5:30:c2:3d:9b:2a:0e:e3:c4:8f:f6:e3:9a:4f:b1:7c:1a:
        92:a1:10:20:64:23:84:a5:c2:1a:32:bc:06:07:59:a4:93:01:
        02:48:2a:09:da:41:e3:6d:93:11:1f:fe:4c:1b:24:e1:86:f8:
        60:94:6a:39:ea:87:e2:fb:a3:eb:36:42:7c:55:fe:6a:c7:27:
        15:db:cb:c1:64:46:84:60:a7:2a:13:41:77:52:4b:3a:a0:44:
        a6:f7:2e:ae:ee:4c:22:50:14:33:c4:77:03:f2:37:29:5e:71:
        29:80:55:9b:41:8e:39:53:28:0e:5e:01:aa:d8:ab:f6:0c:c9:
        a9:36:e4:4f:8d:1d:7a:5d:11:d5:a0:c0:d9:75:2c:5f:1a:da:
        66:4d:16:de:fa:30:b5:f5:22:97:54:20:3d:b0:a8:f1:15:85:
        5b:23:9c:44:ac:b1:ca:f3:52:a0:b0:d7:98:26:d3:84:dd:99:
        9b:e4:56:aa
-----BEGIN CERTIFICATE-----
MIIDTjCCAjYCAhI6MA0GCSqGSIb3DQEBCwUAMIGAMQswCQYDVQQGEwJJTDESMBAG
A1UECAwJSmVydXNhbGVtMRIwEAYDVQQHDAlKZXJ1c2FsZW0xDTALBgNVBAoMBEFS
TU8xDDAKBgNVBAsMA0NUTzENMAsGA1UEAwwEQVJNTzEdMBsGCSqGSIb3DQEJARYO
YmVuQGFybW9zZWMuaW8wHhcNMjIxMTE5MjE1MTEwWhcNMjMxMTE5MjE1MTEwWjBY
MQswCQYDVQQGEwJJTDESMBAGA1UECAwJSmVydXNhbGVtMRIwEAYDVQQHDAlKZXJ1
c2FsZW0xDTALBgNVBAoMBEFSTU8xEjAQBgNVBAMMCTEwLjAuMi4xNTCCASIwDQYJ
KoZIhvcNAQEBBQADggEPADCCAQoCggEBAKcKWaQALHm5FITIQ2KR2s5mx5LJB9Yd
NVEPjBzapm5pcso7l+OxOgynetrV4180ixe3ssL0XpcqEWIbifLXgB4uLOYx6eK2
QOMBaH/SKkQpKuANomOFFeRufAvZMno4fGoQKlDdkBiFFys6LDH0AMGt2njmTqaG
8hppIy++UEbhGNKBarQ/2S8Y1oRWfqpXG70qxZiKPWIVg3DZah0UkThPbUHBPr/I
lFMxNt/PZ/twpwWlRAxx+9ovIi59BAH/sfFLEkYzhI9hvmiPFpdPT8vlpsZhbs38
h3yuqpRjeiNApxG1YFPT2jtWCyRf7A/67XmG7nTR9Laqe8c3fsZMPJ8CAwEAATAN
BgkqhkiG9w0BAQsFAAOCAQEAOqsxmtpzx+pTxl+Ot4PCdaeZq7rcfI5xxG6OCUCt
C0brZoyl+8zEANu3SQFpm2CRN+aWaRrKajaBLrQeRrF0OJuYzwAjOoEvfvUwwj2b
Kg7jxI/245pPsXwakqEQIGQjhKXCGjK8BgdZpJMBAkgqCdpB422TER/+TBsk4Yb4
YJRqOeqH4vuj6zZCfFX+ascnFdvLwWRGhGCnKhNBd1JLOqBEpvcuru5MIlAUM8R3
A/I3KV5xKYBVm0GOOVMoDl4Bqtir9gzJqTbkT40del0R1aDA2XUsXxraZk0W3vow
tfUil1QgPbCo8RWFWyOcRKyxyvNSoLDXmCbThN2Zm+RWqg==
-----END CERTIFICATE-----
