Certificate:
    Data:
        Version: 1 (0x0)
        Serial Number: 4667 (0x123b)
        Signature Algorithm: sha256WithRSAEncryption
        Issuer: C=IL, ST=Jerusalem, L=Jerusalem, O=ARMO, OU=CTO, CN=ARMO/emailAddress=ben@armosec.io
        Validity
            Not Before: Nov 19 21:53:18 2022 GMT
            Not After : Nov 19 21:53:18 2023 GMT
        Subject: C=IL, ST=Jerusalem, L=Jerusalem, O=ARMO, CN=10.0.2.15
        Subject Public Key Info:
            Public Key Algorithm: rsaEncryption
                Public-Key: (2048 bit)
                Modulus:
                    00:a7:0a:59:a4:00:2c:79:b9:14:84:c8:43:62:91:
                    da:ce:66:c7:92:c9:07:d6:1d:35:51:0f:8c:1c:da:
                    a6:6e:69:72:ca:3b:97:e3:b1:3a:0c:a7:7a:da:d5:
                    e3:5f:34:8b:17:b7:b2:c2:f4:5e:97:2a:11:62:1b:
                    89:f2:d7:80:1e:2e:2c:e6:31:e9:e2:b6:40:e3:01:
                    68:7f:d2:2a:44:29:2a:e0:0d:a2:63:85:15:e4:6e:
                    7c:0b:d9:32:7a:38:7c:6a:10:2a:50:dd:90:18:85:
                    17:2b:3a:2c:31:f4:00:c1:ad:da:78:e6:4e:a6:86:
                    f2:1a:69:23:2f:be:50:46:e1:18:d2:81:6a:b4:3f:
                    d9:2f:18:d6:84:56:7e:aa:57:1b:bd:2a:c5:98:8a:
                    3d:62:15:83:70:d9:6a:1d:14:91:38:4f:6d:41:c1:
                    3e:bf:c8:94:53:31:36:df:cf:67:fb:70:a7:05:a5:
                    44:0c:71:fb:da:2f:22:2e:7d:04:01:ff:b1:f1:4b:
                    12:46:33:84:8f:61:be:68:8f:16:97:4f:4f:cb:e5:
                    a6:c6:61:6e:cd:fc:87:7c:ae:aa:94:63:7a:23:40:
                    a7:11:b5:60:53:d3:da:3b:56:0b:24:5f:ec:0f:fa:
                    ed:79:86:ee:74:d1:f4:b6:aa:7b:c7:37:7e:c6:4c:
                    3c:9f
                Exponent: 65537 (0x10001)
    Signature Algorithm: sha256WithRSAEncryption
    Signature Value:
        47:c1:60:ed:5e:d6:4b:5e:51:16:75:3c:6e:17:e8:31:5c:cb:
        bd:9f:0a:a0:cc:51:b7:7c:f0:38:c9:b9:0d:7e:a5:6d:3b:f4:
        4e:b0:28:a2:37:bf:d5:2a:71:22:05:36:b1:29:75:86:62:6b:
        22:39:c9:c3:a9:02:29:df:b1:49:d5:19:62:1c:e4:06:b0:f9:
        b7:63:13:3e:12:1f:eb:8b:51:eb:e4:a4:1d:d5:86:14:6f:5f:
        91:1e:7e:cd:2b:bb:d4:ea:4e:ad:03:ff:ef:66:0d:43:b8:e0:
        cb:22:27:b0:29:77:53:89:b7:cf:e8:05:a1:51:41:73:45:8d:
        ef:c0:ed:cd:51:33:0a:39:98:72:e7:19:4e:06:4c:81:d0:a8:
        49:9b:51:b1:e4:89:99:7d:a7:54:24:fa:87:6b:8e:c0:0a:3d:
        10:42:93:f5:95:15:2e:8f:7b:4b:e5:5b:a4:75:09:c1:50:69:
        a0:95:f5:5e:6e:6f:43:2e:3b:13:55:e4:d7:a6:1c:87:e7:85:
        ae:70:ae:5e:ce:e1:c3:71:7a:85:6b:c1:dc:d7:14:c2:d6:8a:
        ed:75:60:4a:0c:d7:ea:90:18:9f:e1:cf:9b:f9:3f:34:a0:11:
        fa:67:cb:2d:e5:c0:74:8b:9c:6b:6f:f6:f3:5a:f1:48:29:db:
        1d:3d:8c:7d
-----BEGIN CERTIFICATE-----
MIIDTjCCAjYCAhI7MA0GCSqGSIb3DQEBCwUAMIGAMQswCQYDVQQGEwJJTDESMBAG
A1UECAwJSmVydXNhbGVtMRIwEAYDVQQHDAlKZXJ1c2FsZW0xDTALBgNVBAoMBEFS
TU8xDDAKBgNVBAsMA0NUTzENMAsGA1UEAwwEQVJNTzEdMBsGCSqGSIb3DQEJARYO
YmVuQGFybW9zZWMuaW8wHhcNMjIxMTE5MjE1MzE4WhcNMjMxMTE5MjE1MzE4WjBY
MQswCQYDVQQGEwJJTDESMBAGA1UECAwJSmVydXNhbGVtMRIwEAYDVQQHDAlKZXJ1
c2FsZW0xDTALBgNVBAoMBEFSTU8xEjAQBgNVBAMMCTEwLjAuMi4xNTCCASIwDQYJ
KoZIhvcNAQEBBQADggEPADCCAQoCggEBAKcKWaQALHm5FITIQ2KR2s5mx5LJB9Yd
NVEPjBzapm5pcso7l+OxOgynetrV4180ixe3ssL0XpcqEWIbifLXgB4uLOYx6eK2
QOMBaH/SKkQpKuANomOFFeRufAvZMno4fGoQKlDdkBiFFys6LDH0AMGt2njmTqaG
8hppIy++UEbhGNKBarQ/2S8Y1oRWfqpXG70qxZiKPWIVg3DZah0UkThPbUHBPr/I
lFMxNt/PZ/twpwWlRAxx+9ovIi59BAH/sfFLEkYzhI9hvmiPFpdPT8vlpsZhbs38
h3yuqpRjeiNApxG1YFPT2jtWCyRf7A/67XmG7nTR9Laqe8c3fsZMPJ8CAwEAATAN
BgkqhkiG9w0BAQsFAAOCAQEAR8Fg7V7WS15RFnU8bhfoMVzLvZ8KoMxRt3zwOMm5
DX6lbTv0TrAooje/1SpxIgU2sSl1hmJrIjnJw6kCKd+xSdUZYhzkBrD5t2MTPhIf
64tR6+SkHdWGFG9fkR5+zSu71OpOrQP/72YNQ7jgyyInsCl3U4m3z+gFoVFBc0WN
78DtzVEzCjmYcucZTgZMgdCoSZtRseSJmX2nVCT6h2uOwAo9EEKT9ZUVLo97S+Vb
pHUJwVBpoJX1Xm5vQy47E1Xk16Ych+eFrnCuXs7hw3F6hWvB3NcUwtaK7XVgSgzX
6pAYn+HPm/k/NKAR+mfLLeXAdIuca2/281rxSCnbHT2MfQ==
-----END CERTIFICATE-----
