Certificate:
    Data:
        Version: 1 (0x0)
        Serial Number: 4668 (0x123c)
        Signature Algorithm: sha256WithRSAEncryption
        Issuer: C=IL, ST=Jerusalem, L=Jerusalem, O=ARMO, OU=CTO, CN=ARMO/emailAddress=ben@armosec.io
        Validity
            Not Before: Nov 19 21:55:28 2022 GMT
            Not After : Nov 19 21:55:28 2023 GMT
        Subject: C=IL, ST=Jerusalem, L=Jerusalem, O=ARMO, CN=10.0.2.15
        Subject Public Key Info:
            Public Key Algorithm: rsaEncryption
                Public-Key: (2048 bit)
                Modulus:
                    00:a7:0a:59:a4:00:2c:79:b9:14:84:c8:43:62:91:
                    da:ce:66:c7:92:c9:07:d6:1d:35:51:0f:8c:1c:da:
                    a6:6e:69:72:ca:3b:97:e3:b1:3a:0c:a7:7a:da:d5:
                    e3:5f:34:8b:17:b7:b2:c2:f4:5e:97:2a:11:62:1b:
                    89:f2:d7:80:1e:2e:2c:e6:31:e9:e2:b6:40:e3:01:
                    68:7f:d2:2a:44:29:2a:e0:0d:a2:63:85:15:e4:6e:
                    7c:0b:d9:32:7a:38:7c:6a:10:2a:50:dd:90:18:85:
                    17:2b:3a:2c:31:f4:00:c1:ad:da:78:e6:4e:a6:86:
                    f2:1a:69:23:2f:be:50:46:e1:18:d2:81:6a:b4:3f:
                    d9:2f:18:d6:84:56:7e:aa:57:1b:bd:2a:c5:98:8a:
                    3d:62:15:83:70:d9:6a:1d:14:91:38:4f:6d:41:c1:
                    3e:bf:c8:94:53:31:36:df:cf:67:fb:70:a7:05:a5:
                    44:0c:71:fb:da:2f:22:2e:7d:04:01:ff:b1:f1:4b:
                    12:46:33:84:8f:61:be:68:8f:16:97:4f:4f:cb:e5:
                    a6:c6:61:6e:cd:fc:87:7c:ae:aa:94:63:7a:23:40:
                    a7:11:b5:60:53:d3:da:3b:56:0b:24:5f:ec:0f:fa:
                    ed:79:86:ee:74:d1:f4:b6:aa:7b:c7:37:7e:c6:4c:
                    3c:9f
                Exponent: 65537 (0x10001)
    Signature Algorithm: sha256WithRSAEncryption
    Signature Value:
        24:e7:87:18:55:f7:7a:cd:85:b6:0e:71:10:61:ce:16:8e:e5:
        ad:42:fe:94:14:bd:f8:a2:d6:77:b5:d5:ea:f2:d8:58:12:9a:
        08:a0:c8:ed:d0:63:6d:f8:7e:77:07:96:4b:eb:66:45:d6:f3:
        62:dc:32:fc:df:8c:ba:7f:c5:76:0a:9b:75:e8:3b:a3:92:cc:
        ac:c4:ad:6d:2d:f1:a9:e4:5f:b2:21:45:b3:d0:0e:80:c3:6a:
        18:04:79:f0:ea:5c:53:6c:79:84:f5:d1:5e:a3:ff:1c:9e:fb:
        92:36:8f:48:c8:fd:6b:69:2d:62:a3:60:ab:05:74:7f:70:c1:
        3a:33:e4:75:f8:76:aa:77:65:8c:c1:6f:e5:15:ed:d2:0a:af:
        30:e2:34:a5:a9:98:d8:93:2a:3f:f7:df:b4:83:dc:0c:77:81:
        69:fb:40:d2:48:5c:06:46:f5:a2:88:07:ef:ff:18:95:54:1d:
        ae:7f:70:f8:01:d1:19:a9:b8:47:80:d0:cf:84:be:38:87:78:
        29:0d:aa:67:bf:e1:21:01:98:c8:fe:e6:84:65:bc:d9:c5:eb:
        f6:b6:b9:4a:e3:24:f7:52:d9:0b:07:76:c5:e7:a2:8a:01:62:
        34:9b:23:80:1a:05:53:e7:8f:6f:05:aa:e3:27:24:be:70:a1:
        ea:cd:f5:e2
-----BEGIN CERTIFICATE-----
MIIDTjCCAjYCAhI8MA0GCSqGSIb3DQEBCwUAMIGAMQswCQYDVQQGEwJJTDESMBAG
A1UECAwJSmVydXNhbGVtMRIwEAYDVQQHDAlKZXJ1c2FsZW0xDTALBgNVBAoMBEFS
TU8xDDAKBgNVBAsMA0NUTzENMAsGA1UEAwwEQVJNTzEdMBsGCSqGSIb3DQEJARYO
YmVuQGFybW9zZWMuaW8wHhcNMjIxMTE5MjE1NTI4WhcNMjMxMTE5MjE1NTI4WjBY
MQswCQYDVQQGEwJJTDESMBAGA1UECAwJSmVydXNhbGVtMRIwEAYDVQQHDAlKZXJ1
c2FsZW0xDTALBgNVBAoMBEFSTU8xEjAQBgNVBAMMCTEwLjAuMi4xNTCCASIwDQYJ
KoZIhvcNAQEBBQADggEPADCCAQoCggEBAKcKWaQALHm5FITIQ2KR2s5mx5LJB9Yd
NVEPjBzapm5pcso7l+OxOgynetrV4180ixe3ssL0XpcqEWIbifLXgB4uLOYx6eK2
QOMBaH/SKkQpKuANomOFFeRufAvZMno4fGoQKlDdkBiFFys6LDH0AMGt2njmTqaG
8hppIy++UEbhGNKBarQ/2S8Y1oRWfqpXG70qxZiKPWIVg3DZah0UkThPbUHBPr/I
lFMxNt/PZ/twpwWlRAxx+9ovIi59BAH/sfFLEkYzhI9hvmiPFpdPT8vlpsZhbs38
h3yuqpRjeiNApxG1YFPT2jtWCyRf7A/67XmG7nTR9Laqe8c3fsZMPJ8CAwEAATAN
BgkqhkiG9w0BAQsFAAOCAQEAJOeHGFX3es2Ftg5xEGHOFo7lrUL+lBS9+KLWd7XV
6vLYWBKaCKDI7dBjbfh+dweWS+tmRdbzYtwy/N+Mun/Fdgqbdeg7o5LMrMStbS3x
qeRfsiFFs9AOgMNqGAR58OpcU2x5hPXRXqP/HJ77kjaPSMj9a2ktYqNgqwV0f3DB
OjPkdfh2qndljMFv5RXt0gqvMOI0pamY2JMqP/fftIPcDHeBaftA0khcBkb1oogH
7/8YlVQdrn9w+AHRGam4R4DQz4S+OId4KQ2qZ7/hIQGYyP7mhGW82cXr9ra5SuMk
91LZCwd2xeeiigFiNJsjgBoFU+ePbwWq4yckvnCh6s314g==
-----END CERTIFICATE-----
