Certificate:
    Data:
        Version: 1 (0x0)
        Serial Number: 4669 (0x123d)
        Signature Algorithm: sha256WithRSAEncryption
        Issuer: C=IL, ST=Jerusalem, L=Jerusalem, O=ARMO, OU=CTO, CN=ARMO/emailAddress=ben@armosec.io
        Validity
            Not Before: Nov 19 21:57:14 2022 GMT
            Not After : Nov 19 21:57:14 2023 GMT
        Subject: C=IL, ST=Jerusalem, L=Jerusalem, O=ARMO, CN=10.0.2.15
        Subject Public Key Info:
            Public Key Algorithm: rsaEncryption
                Public-Key: (2048 bit)
                Modulus:
                    00:a7:0a:59:a4:00:2c:79:b9:14:84:c8:43:62:91:
                    da:ce:66:c7:92:c9:07:d6:1d:35:51:0f:8c:1c:da:
                    a6:6e:69:72:ca:3b:97:e3:b1:3a:0c:a7:7a:da:d5:
                    e3:5f:34:8b:17:b7:b2:c2:f4:5e:97:2a:11:62:1b:
                    89:f2:d7:80:1e:2e:2c:e6:31:e9:e2:b6:40:e3:01:
                    68:7f:d2:2a:44:29:2a:e0:0d:a2:63:85:15:e4:6e:
                    7c:0b:d9:32:7a:38:7c:6a:10:2a:50:dd:90:18:85:
                    17:2b:3a:2c:31:f4:00:c1:ad:da:78:e6:4e:a6:86:
                    f2:1a:69:23:2f:be:50:46:e1:18:d2:81:6a:b4:3f:
                    d9:2f:18:d6:84:56:7e:aa:57:1b:bd:2a:c5:98:8a:
                    3d:62:15:83:70:d9:6a:1d:14:91:38:4f:6d:41:c1:
                    3e:bf:c8:94:53:31:36:df:cf:67:fb:70:a7:05:a5:
                    44:0c:71:fb:da:2f:22:2e:7d:04:01:ff:b1:f1:4b:
                    12:46:33:84:8f:61:be:68:8f:16:97:4f:4f:cb:e5:
                    a6:c6:61:6e:cd:fc:87:7c:ae:aa:94:63:7a:23:40:
                    a7:11:b5:60:53:d3:da:3b:56:0b:24:5f:ec:0f:fa:
                    ed:79:86:ee:74:d1:f4:b6:aa:7b:c7:37:7e:c6:4c:
                    3c:9f
                Exponent: 65537 (0x10001)
    Signature Algorithm: sha256WithRSAEncryption
    Signature Value:
        73:05:fb:85:de:c8:e7:4a:08:cc:39:6a:ee:3c:3a:f6:58:40:
        05:b8:d2:5e:a4:30:fe:9d:fc:da:0a:15:af:d6:cf:a3:fb:93:
        f9:2f:f8:47:5b:a4:24:66:39:bf:13:16:e8:60:03:d6:d4:7e:
        56:2e:fa:3f:d6:04:44:49:e6:62:e3:5d:fe:ba:b4:41:f2:97:
        72:af:3b:e7:a2:f1:69:33:f2:a1:91:fb:ff:f3:23:e6:9f:50:
        ca:c5:90:2f:3d:41:0b:77:f2:19:74:4a:6e:e8:3c:3d:c7:5f:
        5d:f5:96:83:e2:32:5d:f2:1d:7e:ba:2b:dc:b0:56:e1:c3:cc:
        46:eb:ac:7d:42:fb:67:98:06:59:57:7b:0f:c7:13:e8:69:b4:
        88:a2:e9:85:7e:25:14:f7:e4:8a:1c:1a:b1:c8:9e:0f:98:ca:
        b8:ff:72:87:cc:cd:da:e8:fb:bc:dd:01:b9:c9:2f:10:45:39:
        d4:a5:99:a5:0b:29:68:b5:1a:6b:76:3c:81:ff:fc:ed:7b:6d:
        72:e2:f6:ed:4e:df:dc:31:41:d6:71:10:77:b6:f0:ee:33:8c:
        5d:fb:84:39:c8:29:f1:a6:88:d9:a6:3b:c3:d7:4f:5c:d4:d0:
        3d:b4:c8:9b:8d:9f:85:4d:e9:47:a9:65:3d:3c:6a:b2:58:72:
        19:cc:5b:0a
-----BEGIN CERTIFICATE-----
MIIDTjCCAjYCAhI9MA0GCSqGSIb3DQEBCwUAMIGAMQswCQYDVQQGEwJJTDESMBAG
A1UECAwJSmVydXNhbGVtMRIwEAYDVQQHDAlKZXJ1c2FsZW0xDTALBgNVBAoMBEFS
TU8xDDAKBgNVBAsMA0NUTzENMAsGA1UEAwwEQVJNTzEdMBsGCSqGSIb3DQEJARYO
YmVuQGFybW9zZWMuaW8wHhcNMjIxMTE5MjE1NzE0WhcNMjMxMTE5MjE1NzE0WjBY
MQswCQYDVQQGEwJJTDESMBAGA1UECAwJSmVydXNhbGVtMRIwEAYDVQQHDAlKZXJ1
c2FsZW0xDTALBgNVBAoMBEFSTU8xEjAQBgNVBAMMCTEwLjAuMi4xNTCCASIwDQYJ
KoZIhvcNAQEBBQADggEPADCCAQoCggEBAKcKWaQALHm5FITIQ2KR2s5mx5LJB9Yd
NVEPjBzapm5pcso7l+OxOgynetrV4180ixe3ssL0XpcqEWIbifLXgB4uLOYx6eK2
QOMBaH/SKkQpKuANomOFFeRufAvZMno4fGoQKlDdkBiFFys6LDH0AMGt2njmTqaG
8hppIy++UEbhGNKBarQ/2S8Y1oRWfqpXG70qxZiKPWIVg3DZah0UkThPbUHBPr/I
lFMxNt/PZ/twpwWlRAxx+9ovIi59BAH/sfFLEkYzhI9hvmiPFpdPT8vlpsZhbs38
h3yuqpRjeiNApxG1YFPT2jtWCyRf7A/67XmG7nTR9Laqe8c3fsZMPJ8CAwEAATAN
BgkqhkiG9w0BAQsFAAOCAQEAcwX7hd7I50oIzDlq7jw69lhABbjSXqQw/p382goV
r9bPo/uT+S/4R1ukJGY5vxMW6GAD1tR+Vi76P9YEREnmYuNd/rq0QfKXcq8756Lx
aTPyoZH7//Mj5p9QysWQLz1BC3fyGXRKbug8PcdfXfWWg+IyXfIdfror3LBW4cPM
RuusfUL7Z5gGWVd7D8cT6Gm0iKLphX4lFPfkihwascieD5jKuP9yh8zN2uj7vN0B
uckvEEU51KWZpQspaLUaa3Y8gf/87XttcuL27U7f3DFB1nEQd7bw7jOMXfuEOcgp
8aaI2aY7w9dPXNTQPbTIm42fhU3pR6llPTxqslhyGcxbCg==
-----END CERTIFICATE-----
