Certificate:
    Data:
        Version: 1 (0x0)
        Serial Number: 4670 (0x123e)
        Signature Algorithm: sha256WithRSAEncryption
        Issuer: C=IL, ST=Jerusalem, L=Jerusalem, O=ARMO, OU=CTO, CN=ARMO/emailAddress=ben@armosec.io
        Validity
            Not Before: Nov 19 22:01:57 2022 GMT
            Not After : Nov 19 22:01:57 2023 GMT
        Subject: C=IL, ST=Jerusalem, L=Jerusalem, O=ARMO, OU=CTO, CN=10.0.2.15
        Subject Public Key Info:
            Public Key Algorithm: rsaEncryption
                Public-Key: (2048 bit)
                Modulus:
                    00:a7:0a:59:a4:00:2c:79:b9:14:84:c8:43:62:91:
                    da:ce:66:c7:92:c9:07:d6:1d:35:51:0f:8c:1c:da:
                    a6:6e:69:72:ca:3b:97:e3:b1:3a:0c:a7:7a:da:d5:
                    e3:5f:34:8b:17:b7:b2:c2:f4:5e:97:2a:11:62:1b:
                    89:f2:d7:80:1e:2e:2c:e6:31:e9:e2:b6:40:e3:01:
                    68:7f:d2:2a:44:29:2a:e0:0d:a2:63:85:15:e4:6e:
                    7c:0b:d9:32:7a:38:7c:6a:10:2a:50:dd:90:18:85:
                    17:2b:3a:2c:31:f4:00:c1:ad:da:78:e6:4e:a6:86:
                    f2:1a:69:23:2f:be:50:46:e1:18:d2:81:6a:b4:3f:
                    d9:2f:18:d6:84:56:7e:aa:57:1b:bd:2a:c5:98:8a:
                    3d:62:15:83:70:d9:6a:1d:14:91:38:4f:6d:41:c1:
                    3e:bf:c8:94:53:31:36:df:cf:67:fb:70:a7:05:a5:
                    44:0c:71:fb:da:2f:22:2e:7d:04:01:ff:b1:f1:4b:
                    12:46:33:84:8f:61:be:68:8f:16:97:4f:4f:cb:e5:
                    a6:c6:61:6e:cd:fc:87:7c:ae:aa:94:63:7a:23:40:
                    a7:11:b5:60:53:d3:da:3b:56:0b:24:5f:ec:0f:fa:
                    ed:79:86:ee:74:d1:f4:b6:aa:7b:c7:37:7e:c6:4c:
                    3c:9f
                Exponent: 65537 (0x10001)
    Signature Algorithm: sha256WithRSAEncryption
    Signature Value:
        55:b4:94:2e:f2:e0:de:20:9c:b0:de:4b:dc:b1:e0:b0:43:71:
        1b:2b:b5:e6:d8:8d:61:68:2f:9c:c7:27:e6:be:d0:72:76:54:
        30:84:47:e8:24:5b:24:08:bc:3a:8f:f8:15:7c:f8:23:8e:8f:
        0e:c4:94:33:2a:8d:19:70:ac:69:1a:55:17:3c:9c:28:d4:65:
        87:80:c6:c7:6f:4c:e5:08:22:88:9e:d4:1f:7f:20:80:ac:17:
        46:27:13:43:77:d9:17:95:89:8a:25:c2:4b:8f:75:f3:f3:07:
        e4:a7:63:91:6c:2b:77:cf:f6:38:9c:06:ee:f5:59:6e:16:8b:
        0e:24:6c:2d:8a:fd:a4:02:8b:af:bd:2f:a1:d4:04:d5:93:8a:
        0b:8f:c5:01:fe:8d:84:55:7f:2c:21:ee:62:86:80:fd:dd:d0:
        9e:a0:43:4e:e6:6f:33:5b:b3:79:45:2f:79:fa:76:e0:70:1f:
        10:a2:58:9a:72:f9:9c:bd:57:fc:e0:a8:5c:93:c4:2e:97:14:
        38:51:41:db:71:eb:1a:6e:75:3d:4c:f1:b7:e6:ed:df:7b:93:
        43:55:ed:48:d6:b0:65:5a:25:f3:86:5f:e3:19:82:bd:59:aa:
        07:a0:86:3c:a0:84:a1:f0:a6:88:fa:87:bd:ea:13:41:87:90:
        e4:45:a6:b4
-----BEGIN CERTIFICATE-----
MIIDXDCCAkQCAhI+MA0GCSqGSIb3DQEBCwUAMIGAMQswCQYDVQQGEwJJTDESMBAG
A1UECAwJSmVydXNhbGVtMRIwEAYDVQQHDAlKZXJ1c2FsZW0xDTALBgNVBAoMBEFS
TU8xDDAKBgNVBAsMA0NUTzENMAsGA1UEAwwEQVJNTzEdMBsGCSqGSIb3DQEJARYO
YmVuQGFybW9zZWMuaW8wHhcNMjIxMTE5MjIwMTU3WhcNMjMxMTE5MjIwMTU3WjBm
MQswCQYDVQQGEwJJTDESMBAGA1UECAwJSmVydXNhbGVtMRIwEAYDVQQHDAlKZXJ1
c2FsZW0xDTALBgNVBAoMBEFSTU8xDDAKBgNVBAsMA0NUTzESMBAGA1UEAwwJMTAu
MC4yLjE1MIIBIjANBgkqhkiG9w0BAQEFAAOCAQ8AMIIBCgKCAQEApwpZpAAsebkU
hMhDYpHazmbHkskH1h01UQ+MHNqmbmlyyjuX47E6DKd62tXjXzSLF7eywvRelyoR
YhuJ8teAHi4s5jHp4rZA4wFof9IqRCkq4A2iY4UV5G58C9kyejh8ahAqUN2QGIUX
KzosMfQAwa3aeOZOpobyGmkjL75QRuEY0oFqtD/ZLxjWhFZ+qlcbvSrFmIo9YhWD
cNlqHRSROE9tQcE+v8iUUzE2389n+3CnBaVEDHH72i8iLn0EAf+x8UsSRjOEj2G+
aI8Wl09Py+WmxmFuzfyHfK6qlGN6I0CnEbVgU9PaO1YLJF/sD/rteYbudNH0tqp7
xzd+xkw8nwIDAQABMA0GCSqGSIb3DQEBCwUAA4IBAQBVtJQu8uDeIJyw3kvcseCw
Q3EbK7Xm2I1haC+cxyfmvtBydlQwhEfoJFskCLw6j/gVfPgjjo8OxJQzKo0ZcKxp
GlUXPJwo1GWHgMbHb0zlCCKIntQffyCArBdGJxNDd9kXlYmKJcJLj3Xz8wfkp2OR
bCt3z/Y4nAbu9VluFosOJGwtiv2kAouvvS+h1ATVk4oLj8UB/o2EVX8sIe5ihoD9
3dCeoENO5m8zW7N5RS95+nbgcB8QoliacvmcvVf84Khck8QulxQ4UUHbcesabnU9
TPG35u3fe5NDVe1I1rBlWiXzhl/jGYK9WaoHoIY8oISh8KaI+oe96hNBh5DkRaa0
-----END CERTIFICATE-----
