Certificate:
    Data:
        Version: 1 (0x0)
        Serial Number: 0 (0x0)
    Signature Algorithm: sha256WithRSAEncryption
        Issuer: C=IL, ST=Jerusalem, L=Jerusalem, O=ARMO, OU=CTO, CN=ARMO/emailAddress=ben@armosec.io
        Validity
            Not Before: Dec  7 08:54:19 2022 GMT
            Not After : Dec  7 08:54:19 2023 GMT
        Subject: C=IL, ST=Jerusalem, L=Jerusalem, O=ARMO, OU=CTO, CN=10.100.102.57
        Subject Public Key Info:
            Public Key Algorithm: rsaEncryption
                Public-Key: (2048 bit)
                Modulus:
                    00:a7:0a:59:a4:00:2c:79:b9:14:84:c8:43:62:91:
                    da:ce:66:c7:92:c9:07:d6:1d:35:51:0f:8c:1c:da:
                    a6:6e:69:72:ca:3b:97:e3:b1:3a:0c:a7:7a:da:d5:
                    e3:5f:34:8b:17:b7:b2:c2:f4:5e:97:2a:11:62:1b:
                    89:f2:d7:80:1e:2e:2c:e6:31:e9:e2:b6:40:e3:01:
                    68:7f:d2:2a:44:29:2a:e0:0d:a2:63:85:15:e4:6e:
                    7c:0b:d9:32:7a:38:7c:6a:10:2a:50:dd:90:18:85:
                    17:2b:3a:2c:31:f4:00:c1:ad:da:78:e6:4e:a6:86:
                    f2:1a:69:23:2f:be:50:46:e1:18:d2:81:6a:b4:3f:
                    d9:2f:18:d6:84:56:7e:aa:57:1b:bd:2a:c5:98:8a:
                    3d:62:15:83:70:d9:6a:1d:14:91:38:4f:6d:41:c1:
                    3e:bf:c8:94:53:31:36:df:cf:67:fb:70:a7:05:a5:
                    44:0c:71:fb:da:2f:22:2e:7d:04:01:ff:b1:f1:4b:
                    12:46:33:84:8f:61:be:68:8f:16:97:4f:4f:cb:e5:
                    a6:c6:61:6e:cd:fc:87:7c:ae:aa:94:63:7a:23:40:
                    a7:11:b5:60:53:d3:da:3b:56:0b:24:5f:ec:0f:fa:
                    ed:79:86:ee:74:d1:f4:b6:aa:7b:c7:37:7e:c6:4c:
                    3c:9f
                Exponent: 65537 (0x10001)
        X509v3 extensions:
            X509v3 Subject Alternative Name: 
                IP Address:10.144.123.106
    Signature Algorithm: sha256WithRSAEncryption
         20:e9:46:9a:92:c4:68:2f:e4:95:f8:12:6c:0a:e7:66:51:24:
         49:7f:3c:83:5c:87:a1:24:b7:77:9c:1d:55:e8:67:31:37:10:
         60:77:7a:6b:59:b7:e2:dc:e3:da:39:f3:a9:5e:c4:f2:12:05:
         01:8b:7b:ee:ad:5f:77:10:f8:c6:88:10:9f:da:0b:2b:64:01:
         49:90:25:96:be:37:69:48:57:ed:db:bc:79:bd:a5:77:61:0a:
         57:c8:8b:2e:0c:41:1e:0b:84:f1:a3:94:38:1d:ab:3c:17:b0:
         e9:72:60:0e:c6:40:c9:1d:86:d8:65:5b:35:6d:36:32:31:29:
         e1:95:e2:a8:f7:7c:6b:51:69:a1:7e:cc:1e:07:3e:60:58:fa:
         6e:10:9a:91:b4:eb:20:94:4a:c8:33:cb:8e:02:8a:50:62:25:
         86:12:2c:3a:a9:61:62:ca:31:35:36:1f:12:ea:22:b9:7c:c9:
         00:66:24:d6:21:fa:35:c9:0b:de:62:9b:e7:15:70:71:5c:a8:
         6a:c5:b5:a8:96:26:b9:a9:c6:37:bc:62:c7:c7:5d:47:02:f9:
         6e:28:6e:88:1f:3f:a5:6e:3a:78:14:28:4b:e1:ac:32:48:9c:
         aa:5f:c4:9a:d8:7f:26:0e:87:75:1c:27:a5:fc:1d:ee:d6:00:
         2d:5d:c9:b9
-----BEGIN CERTIFICATE-----
MIIDdDCCAlwCAQAwDQYJKoZIhvcNAQELBQAwgYAxCzAJBgNVBAYTAklMMRIwEAYD
VQQIDAlKZXJ1c2FsZW0xEjAQBgNVBAcMCUplcnVzYWxlbTENMAsGA1UECgwEQVJN
TzEMMAoGA1UECwwDQ1RPMQ0wCwYDVQQDDARBUk1PMR0wGwYJKoZIhvcNAQkBFg5i
ZW5AYXJtb3NlYy5pbzAeFw0yMjEyMDcwODU0MTlaFw0yMzEyMDcwODU0MTlaMGox
CzAJBgNVBAYTAklMMRIwEAYDVQQIDAlKZXJ1c2FsZW0xEjAQBgNVBAcMCUplcnVz
YWxlbTENMAsGA1UECgwEQVJNTzEMMAoGA1UECwwDQ1RPMRYwFAYDVQQDDA0xMC4x
MDAuMTAyLjU3MIIBIjANBgkqhkiG9w0BAQEFAAOCAQ8AMIIBCgKCAQEApwpZpAAs
ebkUhMhDYpHazmbHkskH1h01UQ+MHNqmbmlyyjuX47E6DKd62tXjXzSLF7eywvRe
lyoRYhuJ8teAHi4s5jHp4rZA4wFof9IqRCkq4A2iY4UV5G58C9kyejh8ahAqUN2Q
GIUXKzosMfQAwa3aeOZOpobyGmkjL75QRuEY0oFqtD/ZLxjWhFZ+qlcbvSrFmIo9
YhWDcNlqHRSROE9tQcE+v8iUUzE2389n+3CnBaVEDHH72i8iLn0EAf+x8UsSRjOE
j2G+aI8Wl09Py+WmxmFuzfyHfK6qlGN6I0CnEbVgU9PaO1YLJF/sD/rteYbudNH0
tqp7xzd+xkw8nwIDAQABoxMwETAPBgNVHREECDAGhwQKkHtqMA0GCSqGSIb3DQEB
CwUAA4IBAQAg6UaaksRoL+SV+BJsCudmUSRJfzyDXIehJLd3nB1V6GcxNxBgd3pr
Wbfi3OPaOfOpXsTyEgUBi3vurV93EPjGiBCf2gsrZAFJkCWWvjdpSFft27x5vaV3
YQpXyIsuDEEeC4Txo5Q4Has8F7DpcmAOxkDJHYbYZVs1bTYyMSnhleKo93xrUWmh
fsweBz5gWPpuEJqRtOsglErIM8uOAopQYiWGEiw6qWFiyjE1Nh8S6iK5fMkAZiTW
Ifo1yQveYpvnFXBxXKhqxbWolia5qcY3vGLHx11HAvluKG6IHz+lbjp4FChL4awy
SJyqX8Sa2H8mDod1HCel/B3u1gAtXcm5
-----END CERTIFICATE-----
